; ModuleID = 'source-C-CXX/45/3031.cpp'
source_filename = "source-C-CXX/45/3031.cpp"
target datalayout = "e-m:e-p270:32:32-p271:32:32-p272:64:64-i64:64-f80:128-n8:16:32:64-S128"
target triple = "x86_64-pc-linux-gnu"

%"class.std::ios_base::Init" = type { i8 }
%"class.std::basic_istream" = type { i32 (...)**, i64, %"class.std::basic_ios" }
%"class.std::basic_ios" = type { %"class.std::ios_base", %"class.std::basic_ostream"*, i8, i8, %"class.std::basic_streambuf"*, %"class.std::ctype"*, %"class.std::num_put"*, %"class.std::num_get"* }
%"class.std::ios_base" = type { i32 (...)**, i64, i64, i32, i32, i32, %"struct.std::ios_base::_Callback_list"*, %"struct.std::ios_base::_Words", [8 x %"struct.std::ios_base::_Words"], i32, %"struct.std::ios_base::_Words"*, %"class.std::locale" }
%"struct.std::ios_base::_Callback_list" = type { %"struct.std::ios_base::_Callback_list"*, void (i32, %"class.std::ios_base"*, i32)*, i32, i32 }
%"struct.std::ios_base::_Words" = type { i8*, i64 }
%"class.std::locale" = type { %"class.std::locale::_Impl"* }
%"class.std::locale::_Impl" = type { i32, %"class.std::locale::facet"**, i64, %"class.std::locale::facet"**, i8** }
%"class.std::locale::facet" = type <{ i32 (...)**, i32, [4 x i8] }>
%"class.std::basic_ostream" = type { i32 (...)**, %"class.std::basic_ios" }
%"class.std::basic_streambuf" = type { i32 (...)**, i8*, i8*, i8*, i8*, i8*, i8*, %"class.std::locale" }
%"class.std::ctype" = type <{ %"class.std::locale::facet.base", [4 x i8], %struct.__locale_struct*, i8, [7 x i8], i32*, i32*, i16*, i8, [256 x i8], [256 x i8], i8, [6 x i8] }>
%"class.std::locale::facet.base" = type <{ i32 (...)**, i32 }>
%struct.__locale_struct = type { [13 x %struct.__locale_data*], i16*, i32*, i32*, [13 x i8*] }
%struct.__locale_data = type opaque
%"class.std::num_put" = type { %"class.std::locale::facet.base", [4 x i8] }
%"class.std::num_get" = type { %"class.std::locale::facet.base", [4 x i8] }

@_ZStL8__ioinit = internal global %"class.std::ios_base::Init" zeroinitializer, align 1
@__dso_handle = external hidden global i8
@_ZSt3cin = external global %"class.std::basic_istream", align 8
@_ZSt4cout = external global %"class.std::basic_ostream", align 8
@llvm.global_ctors = appending global [1 x { i32, void ()*, i8* }] [{ i32, void ()*, i8* } { i32 65535, void ()* @_GLOBAL__sub_I_3031.cpp, i8* null }]

declare void @_ZNSt8ios_base4InitC1Ev(%"class.std::ios_base::Init"* nonnull align 1 dereferenceable(1)) unnamed_addr #0

; Function Attrs: nounwind
declare void @_ZNSt8ios_base4InitD1Ev(%"class.std::ios_base::Init"* nonnull align 1 dereferenceable(1)) unnamed_addr #1

; Function Attrs: nofree nounwind
declare i32 @__cxa_atexit(void (i8*)*, i8*, i8*) local_unnamed_addr #2

; Function Attrs: mustprogress norecurse sspstrong uwtable
define dso_local i32 @main() local_unnamed_addr #3 {
  %1 = alloca [101 x [101 x i32]], align 16
  %2 = alloca i32, align 4
  %3 = alloca i32, align 4
  %4 = bitcast [101 x [101 x i32]]* %1 to i8*
  call void @llvm.lifetime.start.p0i8(i64 40804, i8* nonnull %4) #9
  %5 = bitcast i32* %2 to i8*
  call void @llvm.lifetime.start.p0i8(i64 4, i8* nonnull %5) #9
  %6 = bitcast i32* %3 to i8*
  call void @llvm.lifetime.start.p0i8(i64 4, i8* nonnull %6) #9
  %7 = call nonnull align 8 dereferenceable(16) %"class.std::basic_istream"* @_ZNSirsERi(%"class.std::basic_istream"* nonnull align 8 dereferenceable(16) @_ZSt3cin, i32* nonnull align 4 dereferenceable(4) %2)
  %8 = call nonnull align 8 dereferenceable(16) %"class.std::basic_istream"* @_ZNSirsERi(%"class.std::basic_istream"* nonnull align 8 dereferenceable(16) %7, i32* nonnull align 4 dereferenceable(4) %3)
  %9 = load i32, i32* %2, align 4, !tbaa !5
  %10 = icmp slt i32 %9, -1
  %11 = load i32, i32* %3, align 4, !tbaa !5
  br i1 %10, label %32, label %12

12:                                               ; preds = %0, %39
  %13 = phi i32 [ %40, %39 ], [ %9, %0 ]
  %14 = phi i32 [ %41, %39 ], [ %9, %0 ]
  %15 = phi i32 [ %42, %39 ], [ %11, %0 ]
  %16 = phi i32 [ %43, %39 ], [ %11, %0 ]
  %17 = phi i32 [ %44, %39 ], [ %11, %0 ]
  %18 = phi i32 [ %45, %39 ], [ %11, %0 ]
  %19 = phi i64 [ %46, %39 ], [ 0, %0 ]
  %20 = getelementptr [101 x [101 x i32]], [101 x [101 x i32]]* %1, i64 0, i64 %19, i64 0
  %21 = bitcast i32* %20 to i8*
  %22 = icmp slt i32 %18, -1
  br i1 %22, label %39, label %23

23:                                               ; preds = %12
  %24 = icmp eq i64 %19, 0
  br i1 %24, label %27, label %25

25:                                               ; preds = %23
  store i32 0, i32* %20, align 4, !tbaa !5
  %26 = icmp slt i32 %17, 0
  br i1 %26, label %39, label %49

27:                                               ; preds = %23
  %28 = call i32 @llvm.smax.i32(i32 %15, i32 -1)
  %29 = add i32 %28, 2
  %30 = zext i32 %29 to i64
  %31 = shl nuw nsw i64 %30, 2
  call void @llvm.memset.p0i8.i64(i8* align 4 %21, i8 0, i64 %31, i1 false)
  br label %39

32:                                               ; preds = %39, %0
  %33 = phi i32 [ %9, %0 ], [ %41, %39 ]
  %34 = phi i32 [ %11, %0 ], [ %42, %39 ]
  %35 = mul nsw i32 %33, %34
  %36 = icmp sgt i32 %35, 0
  br i1 %36, label %73, label %132

37:                                               ; preds = %67
  %38 = load i32, i32* %2, align 4, !tbaa !5
  br label %39

39:                                               ; preds = %25, %37, %27, %12
  %40 = phi i32 [ %13, %27 ], [ %13, %12 ], [ %38, %37 ], [ %13, %25 ]
  %41 = phi i32 [ %14, %27 ], [ %14, %12 ], [ %38, %37 ], [ %13, %25 ]
  %42 = phi i32 [ %15, %27 ], [ %15, %12 ], [ %68, %37 ], [ %15, %25 ]
  %43 = phi i32 [ %15, %27 ], [ %16, %12 ], [ %69, %37 ], [ %16, %25 ]
  %44 = phi i32 [ %15, %27 ], [ %17, %12 ], [ %69, %37 ], [ %17, %25 ]
  %45 = phi i32 [ %15, %27 ], [ %18, %12 ], [ %69, %37 ], [ %17, %25 ]
  %46 = add nuw nsw i64 %19, 1
  %47 = sext i32 %41 to i64
  %48 = icmp sgt i64 %19, %47
  br i1 %48, label %32, label %12, !llvm.loop !9

49:                                               ; preds = %25, %67
  %50 = phi i32 [ %68, %67 ], [ %15, %25 ]
  %51 = phi i32 [ %69, %67 ], [ %16, %25 ]
  %52 = phi i64 [ %70, %67 ], [ 1, %25 ]
  %53 = phi i32 [ %69, %67 ], [ %17, %25 ]
  %54 = add nsw i32 %53, 1
  %55 = load i32, i32* %2, align 4, !tbaa !5
  %56 = add nsw i32 %55, 1
  %57 = zext i32 %56 to i64
  %58 = icmp eq i64 %19, %57
  %59 = zext i32 %54 to i64
  %60 = icmp eq i64 %52, %59
  %61 = select i1 %58, i1 true, i1 %60
  %62 = getelementptr inbounds [101 x [101 x i32]], [101 x [101 x i32]]* %1, i64 0, i64 %19, i64 %52
  br i1 %61, label %63, label %64

63:                                               ; preds = %49
  store i32 0, i32* %62, align 4, !tbaa !5
  br label %67

64:                                               ; preds = %49
  %65 = call nonnull align 8 dereferenceable(16) %"class.std::basic_istream"* @_ZNSirsERi(%"class.std::basic_istream"* nonnull align 8 dereferenceable(16) @_ZSt3cin, i32* nonnull align 4 dereferenceable(4) %62)
  %66 = load i32, i32* %3, align 4, !tbaa !5
  br label %67

67:                                               ; preds = %63, %64
  %68 = phi i32 [ %50, %63 ], [ %66, %64 ]
  %69 = phi i32 [ %51, %63 ], [ %66, %64 ]
  %70 = add nuw nsw i64 %52, 1
  %71 = sext i32 %69 to i64
  %72 = icmp sgt i64 %52, %71
  br i1 %72, label %37, label %49, !llvm.loop !11

73:                                               ; preds = %32, %109
  %74 = phi i32 [ %127, %109 ], [ 1, %32 ]
  %75 = phi i32 [ %126, %109 ], [ 1, %32 ]
  %76 = phi i32 [ %125, %109 ], [ 0, %32 ]
  %77 = phi i32 [ %124, %109 ], [ 1, %32 ]
  %78 = phi i32 [ %113, %109 ], [ 0, %32 ]
  %79 = sext i32 %75 to i64
  %80 = sext i32 %74 to i64
  %81 = getelementptr inbounds [101 x [101 x i32]], [101 x [101 x i32]]* %1, i64 0, i64 %79, i64 %80
  %82 = load i32, i32* %81, align 4, !tbaa !5
  %83 = call nonnull align 8 dereferenceable(8) %"class.std::basic_ostream"* @_ZNSolsEi(%"class.std::basic_ostream"* nonnull align 8 dereferenceable(8) @_ZSt4cout, i32 %82)
  %84 = bitcast %"class.std::basic_ostream"* %83 to i8**
  %85 = load i8*, i8** %84, align 8, !tbaa !13
  %86 = getelementptr i8, i8* %85, i64 -24
  %87 = bitcast i8* %86 to i64*
  %88 = load i64, i64* %87, align 8
  %89 = bitcast %"class.std::basic_ostream"* %83 to i8*
  %90 = add nsw i64 %88, 240
  %91 = getelementptr inbounds i8, i8* %89, i64 %90
  %92 = bitcast i8* %91 to %"class.std::ctype"**
  %93 = load %"class.std::ctype"*, %"class.std::ctype"** %92, align 8, !tbaa !15
  %94 = icmp eq %"class.std::ctype"* %93, null
  br i1 %94, label %95, label %96

95:                                               ; preds = %73
  call void @_ZSt16__throw_bad_castv() #10
  unreachable

96:                                               ; preds = %73
  %97 = getelementptr inbounds %"class.std::ctype", %"class.std::ctype"* %93, i64 0, i32 8
  %98 = load i8, i8* %97, align 8, !tbaa !19
  %99 = icmp eq i8 %98, 0
  br i1 %99, label %103, label %100

100:                                              ; preds = %96
  %101 = getelementptr inbounds %"class.std::ctype", %"class.std::ctype"* %93, i64 0, i32 9, i64 10
  %102 = load i8, i8* %101, align 1, !tbaa !21
  br label %109

103:                                              ; preds = %96
  call void @_ZNKSt5ctypeIcE13_M_widen_initEv(%"class.std::ctype"* nonnull align 8 dereferenceable(570) %93)
  %104 = bitcast %"class.std::ctype"* %93 to i8 (%"class.std::ctype"*, i8)***
  %105 = load i8 (%"class.std::ctype"*, i8)**, i8 (%"class.std::ctype"*, i8)*** %104, align 8, !tbaa !13
  %106 = getelementptr inbounds i8 (%"class.std::ctype"*, i8)*, i8 (%"class.std::ctype"*, i8)** %105, i64 6
  %107 = load i8 (%"class.std::ctype"*, i8)*, i8 (%"class.std::ctype"*, i8)** %106, align 8
  %108 = call signext i8 %107(%"class.std::ctype"* nonnull align 8 dereferenceable(570) %93, i8 signext 10)
  br label %109

109:                                              ; preds = %100, %103
  %110 = phi i8 [ %102, %100 ], [ %108, %103 ]
  %111 = call nonnull align 8 dereferenceable(8) %"class.std::basic_ostream"* @_ZNSo3putEc(%"class.std::basic_ostream"* nonnull align 8 dereferenceable(8) %83, i8 signext %110)
  %112 = call nonnull align 8 dereferenceable(8) %"class.std::basic_ostream"* @_ZNSo5flushEv(%"class.std::basic_ostream"* nonnull align 8 dereferenceable(8) %111)
  store i32 0, i32* %81, align 4, !tbaa !5
  %113 = add nuw nsw i32 %78, 1
  %114 = add nsw i32 %75, %76
  %115 = sext i32 %114 to i64
  %116 = add nsw i32 %74, %77
  %117 = sext i32 %116 to i64
  %118 = getelementptr inbounds [101 x [101 x i32]], [101 x [101 x i32]]* %1, i64 0, i64 %115, i64 %117
  %119 = load i32, i32* %118, align 4, !tbaa !5
  %120 = icmp eq i32 %119, 0
  %121 = icmp eq i32 %77, 0
  %122 = sub nsw i32 0, %76
  %123 = select i1 %121, i32 %122, i32 0
  %124 = select i1 %120, i32 %123, i32 %77
  %125 = select i1 %120, i32 %77, i32 %76
  %126 = add nsw i32 %125, %75
  %127 = add nsw i32 %124, %74
  %128 = load i32, i32* %3, align 4, !tbaa !5
  %129 = load i32, i32* %2, align 4, !tbaa !5
  %130 = mul nsw i32 %129, %128
  %131 = icmp slt i32 %113, %130
  br i1 %131, label %73, label %132, !llvm.loop !22

132:                                              ; preds = %109, %32
  call void @llvm.lifetime.end.p0i8(i64 4, i8* nonnull %6) #9
  call void @llvm.lifetime.end.p0i8(i64 4, i8* nonnull %5) #9
  call void @llvm.lifetime.end.p0i8(i64 40804, i8* nonnull %4) #9
  ret i32 0
}

; Function Attrs: argmemonly mustprogress nofree nosync nounwind willreturn
declare void @llvm.lifetime.start.p0i8(i64 immarg, i8* nocapture) #4

declare nonnull align 8 dereferenceable(16) %"class.std::basic_istream"* @_ZNSirsERi(%"class.std::basic_istream"* nonnull align 8 dereferenceable(16), i32* nonnull align 4 dereferenceable(4)) local_unnamed_addr #0

; Function Attrs: argmemonly mustprogress nofree nosync nounwind willreturn
declare void @llvm.lifetime.end.p0i8(i64 immarg, i8* nocapture) #4

declare nonnull align 8 dereferenceable(8) %"class.std::basic_ostream"* @_ZNSolsEi(%"class.std::basic_ostream"* nonnull align 8 dereferenceable(8), i32) local_unnamed_addr #0

declare nonnull align 8 dereferenceable(8) %"class.std::basic_ostream"* @_ZNSo3putEc(%"class.std::basic_ostream"* nonnull align 8 dereferenceable(8), i8 signext) local_unnamed_addr #0

declare nonnull align 8 dereferenceable(8) %"class.std::basic_ostream"* @_ZNSo5flushEv(%"class.std::basic_ostream"* nonnull align 8 dereferenceable(8)) local_unnamed_addr #0

; Function Attrs: noreturn
declare void @_ZSt16__throw_bad_castv() local_unnamed_addr #5

declare void @_ZNKSt5ctypeIcE13_M_widen_initEv(%"class.std::ctype"* nonnull align 8 dereferenceable(570)) local_unnamed_addr #0

; Function Attrs: sspstrong uwtable
define internal void @_GLOBAL__sub_I_3031.cpp() #6 section ".text.startup" {
  tail call void @_ZNSt8ios_base4InitC1Ev(%"class.std::ios_base::Init"* nonnull align 1 dereferenceable(1) @_ZStL8__ioinit)
  %1 = tail call i32 @__cxa_atexit(void (i8*)* bitcast (void (%"class.std::ios_base::Init"*)* @_ZNSt8ios_base4InitD1Ev to void (i8*)*), i8* getelementptr inbounds (%"class.std::ios_base::Init", %"class.std::ios_base::Init"* @_ZStL8__ioinit, i64 0, i32 0), i8* nonnull @__dso_handle) #9
  ret void
}

; Function Attrs: nofree nosync nounwind readnone speculatable willreturn
declare i32 @llvm.smax.i32(i32, i32) #7

; Function Attrs: argmemonly nofree nounwind willreturn writeonly
declare void @llvm.memset.p0i8.i64(i8* nocapture writeonly, i8, i64, i1 immarg) #8


!llvm.module.flags = !{!0, !1, !2, !3}
!llvm.ident = !{!4}

!0 = !{i32 1, !"wchar_size", i32 4}
!1 = !{i32 7, !"PIC Level", i32 2}
!2 = !{i32 7, !"PIE Level", i32 2}
!3 = !{i32 7, !"uwtable", i32 1}
!4 = !{!"clang version 13.0.0"}
!5 = !{!6, !6, i64 0}
!6 = !{!"int", !7, i64 0}
!7 = !{!"omnipotent char", !8, i64 0}
!8 = !{!"Simple C++ TBAA"}
!9 = distinct !{!9, !10}
!10 = !{!"llvm.loop.mustprogress"}
!11 = distinct !{!11, !10, !12}
!12 = !{!"llvm.loop.peeled.count", i32 1}
!13 = !{!14, !14, i64 0}
!14 = !{!"vtable pointer", !8, i64 0}
!15 = !{!16, !17, i64 240}
!16 = !{!"_ZTSSt9basic_iosIcSt11char_traitsIcEE", !17, i64 216, !7, i64 224, !18, i64 225, !17, i64 232, !17, i64 240, !17, i64 248, !17, i64 256}
!17 = !{!"any pointer", !7, i64 0}
!18 = !{!"bool", !7, i64 0}
!19 = !{!20, !7, i64 56}
!20 = !{!"_ZTSSt5ctypeIcE", !17, i64 16, !18, i64 24, !17, i64 32, !17, i64 40, !17, i64 48, !7, i64 56, !7, i64 57, !7, i64 313, !7, i64 569}
!21 = !{!7, !7, i64 0}
!22 = distinct !{!22, !10}
